; Function Attrs: mustprogress uwtable
define void @_ZNK8facebook5velox4core10ExpandNode9serializeEv(ptr noalias sret(%"struct.folly::dynamic") align 8 %agg.result, ptr noundef nonnull align 8 dereferenceable(104) %this) unnamed_addr #0 align 2 personality ptr @__gxx_personality_v0 {
entry:
  %ref.tmp = alloca %"struct.folly::dynamic", align 8
  %ref.tmp6 = alloca %"struct.folly::dynamic", align 8
  tail call void @_ZNK8facebook5velox4core8PlanNode9serializeEv(ptr sret(%"struct.folly::dynamic") align 8 %agg.result, ptr noundef nonnull align 8 dereferenceable(40) %this)
  %projections_ = getelementptr inbounds i8, ptr %this, i64 80
  invoke void @_ZN8facebook5velox13ISerializable9serializeISt6vectorISt10shared_ptrIKNS0_4core10ITypedExprEESaIS8_EEEEN5folly7dynamicERKS3_IT_SaISD_EE(ptr nonnull sret(%"struct.folly::dynamic") align 8 %ref.tmp, ptr noundef nonnull align 8 dereferenceable(24) %projections_)
          to label %invoke.cont unwind label %lpad

invoke.cont:                                      ; preds = %entry
  %call = invoke noundef nonnull align 8 dereferenceable(40) ptr @_ZNR5folly7dynamicixENS_5RangeIPKcEE(ptr noundef nonnull align 8 dereferenceable(40) %agg.result, ptr nonnull @.str.33, ptr nonnull getelementptr inbounds ([12 x i8], ptr @.str.33, i64 0, i64 11))
          to label %invoke.cont4 unwind label %lpad2

invoke.cont4:                                     ; preds = %invoke.cont
  %call5 = call noundef nonnull align 8 dereferenceable(40) ptr @_ZN5folly7dynamicaSEOS0_(ptr noundef nonnull align 8 dereferenceable(40) %call, ptr noundef nonnull align 8 dereferenceable(40) %ref.tmp) #30
  call void @_ZN5folly7dynamic7destroyEv(ptr noundef nonnull align 8 dereferenceable(40) %ref.tmp) #30
  %outputType_ = getelementptr inbounds i8, ptr %this, i64 64
  %0 = load ptr, ptr %outputType_, align 8
  %names_.i = getelementptr inbounds i8, ptr %0, i64 24
  invoke void @_ZN8facebook5velox13ISerializable9serializeINSt7__cxx1112basic_stringIcSt11char_traitsIcESaIcEEEEEN5folly7dynamicERKSt6vectorIT_SaISC_EE(ptr nonnull sret(%"struct.folly::dynamic") align 8 %ref.tmp6, ptr noundef nonnull align 8 dereferenceable(24) %names_.i)
          to label %invoke.cont10 unwind label %lpad

invoke.cont10:                                    ; preds = %invoke.cont4
  %call15 = invoke noundef nonnull align 8 dereferenceable(40) ptr @_ZNR5folly7dynamicixENS_5RangeIPKcEE(ptr noundef nonnull align 8 dereferenceable(40) %agg.result, ptr nonnull @.str.34, ptr nonnull getelementptr inbounds ([6 x i8], ptr @.str.34, i64 0, i64 5))
          to label %invoke.cont14 unwind label %lpad12

invoke.cont14:                                    ; preds = %invoke.cont10
  %call16 = call noundef nonnull align 8 dereferenceable(40) ptr @_ZN5folly7dynamicaSEOS0_(ptr noundef nonnull align 8 dereferenceable(40) %call15, ptr noundef nonnull align 8 dereferenceable(40) %ref.tmp6) #30
  call void @_ZN5folly7dynamic7destroyEv(ptr noundef nonnull align 8 dereferenceable(40) %ref.tmp6) #30
  ret void

lpad:                                             ; preds = %invoke.cont4, %entry
  %1 = landingpad { ptr, i32 }
          cleanup
  br label %ehcleanup

lpad2:                                            ; preds = %invoke.cont
  %2 = landingpad { ptr, i32 }
          cleanup
  call void @_ZN5folly7dynamic7destroyEv(ptr noundef nonnull align 8 dereferenceable(40) %ref.tmp) #30
  br label %ehcleanup

lpad12:                                           ; preds = %invoke.cont10
  %3 = landingpad { ptr, i32 }
          cleanup
  call void @_ZN5folly7dynamic7destroyEv(ptr noundef nonnull align 8 dereferenceable(40) %ref.tmp6) #30
  br label %ehcleanup

ehcleanup:                                        ; preds = %lpad12, %lpad2, %lpad
  %.pn = phi { ptr, i32 } [ %3, %lpad12 ], [ %1, %lpad ], [ %2, %lpad2 ]
  call void @_ZN5folly7dynamic7destroyEv(ptr noundef nonnull align 8 dereferenceable(40) %agg.result) #30
  resume { ptr, i32 } %.pn
}